ARM GAS  C:\Users\bnusw\AppData\Local\Temp\ccZu8zgV.s 			page 1


   1              		.syntax unified
   2              		.cpu cortex-m0
   3              		.fpu softvfp
   4              		.eabi_attribute 20, 1
   5              		.eabi_attribute 21, 1
   6              		.eabi_attribute 23, 3
   7              		.eabi_attribute 24, 1
   8              		.eabi_attribute 25, 1
   9              		.eabi_attribute 26, 1
  10              		.eabi_attribute 30, 1
  11              		.eabi_attribute 34, 0
  12              		.eabi_attribute 18, 4
  13              		.thumb
  14              		.syntax unified
  15              		.file	"tim.c"
  16              		.text
  17              	.Ltext0:
  18              		.cfi_sections	.debug_frame
  19              		.section	.text.MX_TIM3_Init,"ax",%progbits
  20              		.align	2
  21              		.global	MX_TIM3_Init
  22              		.code	16
  23              		.thumb_func
  25              	MX_TIM3_Init:
  26              	.LFB40:
  27              		.file 1 "Src/tim.c"
   1:Src/tim.c     **** /**
   2:Src/tim.c     ****   ******************************************************************************
   3:Src/tim.c     ****   * File Name          : TIM.c
   4:Src/tim.c     ****   * Description        : This file provides code for the configuration
   5:Src/tim.c     ****   *                      of the TIM instances.
   6:Src/tim.c     ****   ******************************************************************************
   7:Src/tim.c     ****   * @attention
   8:Src/tim.c     ****   *
   9:Src/tim.c     ****   * <h2><center>&copy; Copyright (c) 2020 STMicroelectronics.
  10:Src/tim.c     ****   * All rights reserved.</center></h2>
  11:Src/tim.c     ****   *
  12:Src/tim.c     ****   * This software component is licensed by ST under BSD 3-Clause license,
  13:Src/tim.c     ****   * the "License"; You may not use this file except in compliance with the
  14:Src/tim.c     ****   * License. You may obtain a copy of the License at:
  15:Src/tim.c     ****   *                        opensource.org/licenses/BSD-3-Clause
  16:Src/tim.c     ****   *
  17:Src/tim.c     ****   ******************************************************************************
  18:Src/tim.c     ****   */
  19:Src/tim.c     **** 
  20:Src/tim.c     **** /* Includes ------------------------------------------------------------------*/
  21:Src/tim.c     **** #include "tim.h"
  22:Src/tim.c     **** 
  23:Src/tim.c     **** /* USER CODE BEGIN 0 */
  24:Src/tim.c     **** 
  25:Src/tim.c     **** /* USER CODE END 0 */
  26:Src/tim.c     **** 
  27:Src/tim.c     **** TIM_HandleTypeDef htim3;
  28:Src/tim.c     **** 
  29:Src/tim.c     **** /* TIM3 init function */
  30:Src/tim.c     **** void MX_TIM3_Init(void)
  31:Src/tim.c     **** {
ARM GAS  C:\Users\bnusw\AppData\Local\Temp\ccZu8zgV.s 			page 2


  28              		.loc 1 31 0
  29              		.cfi_startproc
  30              		@ args = 0, pretend = 0, frame = 24
  31              		@ frame_needed = 0, uses_anonymous_args = 0
  32 0000 00B5     		push	{lr}
  33              	.LCFI0:
  34              		.cfi_def_cfa_offset 4
  35              		.cfi_offset 14, -4
  36 0002 87B0     		sub	sp, sp, #28
  37              	.LCFI1:
  38              		.cfi_def_cfa_offset 32
  32:Src/tim.c     ****   TIM_ClockConfigTypeDef sClockSourceConfig = {0};
  39              		.loc 1 32 0
  40 0004 1022     		movs	r2, #16
  41 0006 0021     		movs	r1, #0
  42 0008 02A8     		add	r0, sp, #8
  43 000a FFF7FEFF 		bl	memset
  44              	.LVL0:
  33:Src/tim.c     ****   TIM_MasterConfigTypeDef sMasterConfig = {0};
  45              		.loc 1 33 0
  46 000e 0822     		movs	r2, #8
  47 0010 0021     		movs	r1, #0
  48 0012 6846     		mov	r0, sp
  49 0014 FFF7FEFF 		bl	memset
  50              	.LVL1:
  34:Src/tim.c     **** 
  35:Src/tim.c     ****   htim3.Instance = TIM3;
  51              		.loc 1 35 0
  52 0018 1448     		ldr	r0, .L5
  53 001a 154B     		ldr	r3, .L5+4
  54 001c 0360     		str	r3, [r0]
  36:Src/tim.c     ****   htim3.Init.Prescaler = 47999;
  55              		.loc 1 36 0
  56 001e 154B     		ldr	r3, .L5+8
  57 0020 4360     		str	r3, [r0, #4]
  37:Src/tim.c     ****   htim3.Init.CounterMode = TIM_COUNTERMODE_UP;
  58              		.loc 1 37 0
  59 0022 0023     		movs	r3, #0
  60 0024 8360     		str	r3, [r0, #8]
  38:Src/tim.c     ****   htim3.Init.Period = 999;
  61              		.loc 1 38 0
  62 0026 144A     		ldr	r2, .L5+12
  63 0028 C260     		str	r2, [r0, #12]
  39:Src/tim.c     ****   htim3.Init.ClockDivision = TIM_CLOCKDIVISION_DIV1;
  64              		.loc 1 39 0
  65 002a 0361     		str	r3, [r0, #16]
  40:Src/tim.c     ****   htim3.Init.AutoReloadPreload = TIM_AUTORELOAD_PRELOAD_ENABLE;
  66              		.loc 1 40 0
  67 002c 8033     		adds	r3, r3, #128
  68 002e 8361     		str	r3, [r0, #24]
  41:Src/tim.c     ****   if (HAL_TIM_Base_Init(&htim3) != HAL_OK)
  69              		.loc 1 41 0
  70 0030 FFF7FEFF 		bl	HAL_TIM_Base_Init
  71              	.LVL2:
  72 0034 0028     		cmp	r0, #0
  73 0036 01D0     		beq	.L2
  42:Src/tim.c     ****   {
ARM GAS  C:\Users\bnusw\AppData\Local\Temp\ccZu8zgV.s 			page 3


  43:Src/tim.c     ****     Error_Handler();
  74              		.loc 1 43 0
  75 0038 FFF7FEFF 		bl	Error_Handler
  76              	.LVL3:
  77              	.L2:
  44:Src/tim.c     ****   }
  45:Src/tim.c     ****   sClockSourceConfig.ClockSource = TIM_CLOCKSOURCE_INTERNAL;
  78              		.loc 1 45 0
  79 003c 8023     		movs	r3, #128
  80 003e 5B01     		lsls	r3, r3, #5
  81 0040 0293     		str	r3, [sp, #8]
  46:Src/tim.c     ****   if (HAL_TIM_ConfigClockSource(&htim3, &sClockSourceConfig) != HAL_OK)
  82              		.loc 1 46 0
  83 0042 02A9     		add	r1, sp, #8
  84 0044 0948     		ldr	r0, .L5
  85 0046 FFF7FEFF 		bl	HAL_TIM_ConfigClockSource
  86              	.LVL4:
  87 004a 0028     		cmp	r0, #0
  88 004c 01D0     		beq	.L3
  47:Src/tim.c     ****   {
  48:Src/tim.c     ****     Error_Handler();
  89              		.loc 1 48 0
  90 004e FFF7FEFF 		bl	Error_Handler
  91              	.LVL5:
  92              	.L3:
  49:Src/tim.c     ****   }
  50:Src/tim.c     ****   sMasterConfig.MasterOutputTrigger = TIM_TRGO_RESET;
  93              		.loc 1 50 0
  94 0052 0023     		movs	r3, #0
  95 0054 0093     		str	r3, [sp]
  51:Src/tim.c     ****   sMasterConfig.MasterSlaveMode = TIM_MASTERSLAVEMODE_DISABLE;
  96              		.loc 1 51 0
  97 0056 0193     		str	r3, [sp, #4]
  52:Src/tim.c     ****   if (HAL_TIMEx_MasterConfigSynchronization(&htim3, &sMasterConfig) != HAL_OK)
  98              		.loc 1 52 0
  99 0058 6946     		mov	r1, sp
 100 005a 0448     		ldr	r0, .L5
 101 005c FFF7FEFF 		bl	HAL_TIMEx_MasterConfigSynchronization
 102              	.LVL6:
 103 0060 0028     		cmp	r0, #0
 104 0062 01D0     		beq	.L1
  53:Src/tim.c     ****   {
  54:Src/tim.c     ****     Error_Handler();
 105              		.loc 1 54 0
 106 0064 FFF7FEFF 		bl	Error_Handler
 107              	.LVL7:
 108              	.L1:
  55:Src/tim.c     ****   }
  56:Src/tim.c     **** 
  57:Src/tim.c     **** }
 109              		.loc 1 57 0
 110 0068 07B0     		add	sp, sp, #28
 111              		@ sp needed
 112 006a 00BD     		pop	{pc}
 113              	.L6:
 114              		.align	2
 115              	.L5:
ARM GAS  C:\Users\bnusw\AppData\Local\Temp\ccZu8zgV.s 			page 4


 116 006c 00000000 		.word	htim3
 117 0070 00040040 		.word	1073742848
 118 0074 7FBB0000 		.word	47999
 119 0078 E7030000 		.word	999
 120              		.cfi_endproc
 121              	.LFE40:
 123              		.section	.text.HAL_TIM_Base_MspInit,"ax",%progbits
 124              		.align	2
 125              		.global	HAL_TIM_Base_MspInit
 126              		.code	16
 127              		.thumb_func
 129              	HAL_TIM_Base_MspInit:
 130              	.LFB41:
  58:Src/tim.c     **** 
  59:Src/tim.c     **** void HAL_TIM_Base_MspInit(TIM_HandleTypeDef* tim_baseHandle)
  60:Src/tim.c     **** {
 131              		.loc 1 60 0
 132              		.cfi_startproc
 133              		@ args = 0, pretend = 0, frame = 8
 134              		@ frame_needed = 0, uses_anonymous_args = 0
 135              	.LVL8:
 136 0000 00B5     		push	{lr}
 137              	.LCFI2:
 138              		.cfi_def_cfa_offset 4
 139              		.cfi_offset 14, -4
 140 0002 83B0     		sub	sp, sp, #12
 141              	.LCFI3:
 142              		.cfi_def_cfa_offset 16
  61:Src/tim.c     **** 
  62:Src/tim.c     ****   if(tim_baseHandle->Instance==TIM3)
 143              		.loc 1 62 0
 144 0004 0268     		ldr	r2, [r0]
 145 0006 0B4B     		ldr	r3, .L9
 146 0008 9A42     		cmp	r2, r3
 147 000a 10D1     		bne	.L7
 148              	.LBB2:
  63:Src/tim.c     ****   {
  64:Src/tim.c     ****   /* USER CODE BEGIN TIM3_MspInit 0 */
  65:Src/tim.c     **** 
  66:Src/tim.c     ****   /* USER CODE END TIM3_MspInit 0 */
  67:Src/tim.c     ****     /* TIM3 clock enable */
  68:Src/tim.c     ****     __HAL_RCC_TIM3_CLK_ENABLE();
 149              		.loc 1 68 0
 150 000c 0A4A     		ldr	r2, .L9+4
 151 000e D169     		ldr	r1, [r2, #28]
 152 0010 0220     		movs	r0, #2
 153              	.LVL9:
 154 0012 0143     		orrs	r1, r0
 155 0014 D161     		str	r1, [r2, #28]
 156 0016 D369     		ldr	r3, [r2, #28]
 157 0018 0340     		ands	r3, r0
 158 001a 0193     		str	r3, [sp, #4]
 159 001c 019B     		ldr	r3, [sp, #4]
 160              	.LBE2:
  69:Src/tim.c     **** 
  70:Src/tim.c     ****     /* TIM3 interrupt Init */
  71:Src/tim.c     ****     HAL_NVIC_SetPriority(TIM3_IRQn, 0, 0);
ARM GAS  C:\Users\bnusw\AppData\Local\Temp\ccZu8zgV.s 			page 5


 161              		.loc 1 71 0
 162 001e 0022     		movs	r2, #0
 163 0020 0021     		movs	r1, #0
 164 0022 0E30     		adds	r0, r0, #14
 165 0024 FFF7FEFF 		bl	HAL_NVIC_SetPriority
 166              	.LVL10:
  72:Src/tim.c     ****     HAL_NVIC_EnableIRQ(TIM3_IRQn);
 167              		.loc 1 72 0
 168 0028 1020     		movs	r0, #16
 169 002a FFF7FEFF 		bl	HAL_NVIC_EnableIRQ
 170              	.LVL11:
 171              	.L7:
  73:Src/tim.c     ****   /* USER CODE BEGIN TIM3_MspInit 1 */
  74:Src/tim.c     **** 
  75:Src/tim.c     ****   /* USER CODE END TIM3_MspInit 1 */
  76:Src/tim.c     ****   }
  77:Src/tim.c     **** }
 172              		.loc 1 77 0
 173 002e 03B0     		add	sp, sp, #12
 174              		@ sp needed
 175 0030 00BD     		pop	{pc}
 176              	.L10:
 177 0032 C046     		.align	2
 178              	.L9:
 179 0034 00040040 		.word	1073742848
 180 0038 00100240 		.word	1073876992
 181              		.cfi_endproc
 182              	.LFE41:
 184              		.section	.text.HAL_TIM_Base_MspDeInit,"ax",%progbits
 185              		.align	2
 186              		.global	HAL_TIM_Base_MspDeInit
 187              		.code	16
 188              		.thumb_func
 190              	HAL_TIM_Base_MspDeInit:
 191              	.LFB42:
  78:Src/tim.c     **** 
  79:Src/tim.c     **** void HAL_TIM_Base_MspDeInit(TIM_HandleTypeDef* tim_baseHandle)
  80:Src/tim.c     **** {
 192              		.loc 1 80 0
 193              		.cfi_startproc
 194              		@ args = 0, pretend = 0, frame = 0
 195              		@ frame_needed = 0, uses_anonymous_args = 0
 196              	.LVL12:
 197 0000 10B5     		push	{r4, lr}
 198              	.LCFI4:
 199              		.cfi_def_cfa_offset 8
 200              		.cfi_offset 4, -8
 201              		.cfi_offset 14, -4
  81:Src/tim.c     **** 
  82:Src/tim.c     ****   if(tim_baseHandle->Instance==TIM3)
 202              		.loc 1 82 0
 203 0002 0268     		ldr	r2, [r0]
 204 0004 054B     		ldr	r3, .L13
 205 0006 9A42     		cmp	r2, r3
 206 0008 07D1     		bne	.L11
  83:Src/tim.c     ****   {
  84:Src/tim.c     ****   /* USER CODE BEGIN TIM3_MspDeInit 0 */
ARM GAS  C:\Users\bnusw\AppData\Local\Temp\ccZu8zgV.s 			page 6


  85:Src/tim.c     **** 
  86:Src/tim.c     ****   /* USER CODE END TIM3_MspDeInit 0 */
  87:Src/tim.c     ****     /* Peripheral clock disable */
  88:Src/tim.c     ****     __HAL_RCC_TIM3_CLK_DISABLE();
 207              		.loc 1 88 0
 208 000a 054A     		ldr	r2, .L13+4
 209 000c D369     		ldr	r3, [r2, #28]
 210 000e 0221     		movs	r1, #2
 211 0010 8B43     		bics	r3, r1
 212 0012 D361     		str	r3, [r2, #28]
  89:Src/tim.c     **** 
  90:Src/tim.c     ****     /* TIM3 interrupt Deinit */
  91:Src/tim.c     ****     HAL_NVIC_DisableIRQ(TIM3_IRQn);
 213              		.loc 1 91 0
 214 0014 1020     		movs	r0, #16
 215              	.LVL13:
 216 0016 FFF7FEFF 		bl	HAL_NVIC_DisableIRQ
 217              	.LVL14:
 218              	.L11:
  92:Src/tim.c     ****   /* USER CODE BEGIN TIM3_MspDeInit 1 */
  93:Src/tim.c     **** 
  94:Src/tim.c     ****   /* USER CODE END TIM3_MspDeInit 1 */
  95:Src/tim.c     ****   }
  96:Src/tim.c     **** } 
 219              		.loc 1 96 0
 220              		@ sp needed
 221 001a 10BD     		pop	{r4, pc}
 222              	.L14:
 223              		.align	2
 224              	.L13:
 225 001c 00040040 		.word	1073742848
 226 0020 00100240 		.word	1073876992
 227              		.cfi_endproc
 228              	.LFE42:
 230              		.comm	htim3,72,4
 231              		.text
 232              	.Letext0:
 233              		.file 2 "c:\\program files (x86)\\gnu tools arm embedded\\5.4 2016q3\\arm-none-eabi\\include\\mach
 234              		.file 3 "c:\\program files (x86)\\gnu tools arm embedded\\5.4 2016q3\\arm-none-eabi\\include\\sys\
 235              		.file 4 "Drivers/CMSIS/Device/ST/STM32F0xx/Include/stm32f030x8.h"
 236              		.file 5 "Drivers/STM32F0xx_HAL_Driver/Inc/stm32f0xx_hal_def.h"
 237              		.file 6 "Drivers/STM32F0xx_HAL_Driver/Inc/stm32f0xx_hal_dma.h"
 238              		.file 7 "Drivers/STM32F0xx_HAL_Driver/Inc/stm32f0xx_hal_tim.h"
 239              		.file 8 "Inc/main.h"
 240              		.file 9 "Drivers/STM32F0xx_HAL_Driver/Inc/stm32f0xx_hal_tim_ex.h"
 241              		.file 10 "Drivers/STM32F0xx_HAL_Driver/Inc/stm32f0xx_hal_cortex.h"
ARM GAS  C:\Users\bnusw\AppData\Local\Temp\ccZu8zgV.s 			page 7

