ARM GAS  C:\Users\bnusw\AppData\Local\Temp\ccYygTin.s 			page 1


   1              		.syntax unified
   2              		.cpu cortex-m0
   3              		.fpu softvfp
   4              		.eabi_attribute 20, 1
   5              		.eabi_attribute 21, 1
   6              		.eabi_attribute 23, 3
   7              		.eabi_attribute 24, 1
   8              		.eabi_attribute 25, 1
   9              		.eabi_attribute 26, 1
  10              		.eabi_attribute 30, 1
  11              		.eabi_attribute 34, 0
  12              		.eabi_attribute 18, 4
  13              		.thumb
  14              		.syntax unified
  15              		.file	"usart.c"
  16              		.text
  17              	.Ltext0:
  18              		.cfi_sections	.debug_frame
  19              		.section	.text.MX_USART1_UART_Init,"ax",%progbits
  20              		.align	2
  21              		.global	MX_USART1_UART_Init
  22              		.code	16
  23              		.thumb_func
  25              	MX_USART1_UART_Init:
  26              	.LFB40:
  27              		.file 1 "Src/usart.c"
   1:Src/usart.c   **** /**
   2:Src/usart.c   ****   ******************************************************************************
   3:Src/usart.c   ****   * @file    usart.c
   4:Src/usart.c   ****   * @brief   This file provides code for the configuration
   5:Src/usart.c   ****   *          of the USART instances.
   6:Src/usart.c   ****   ******************************************************************************
   7:Src/usart.c   ****   * @attention
   8:Src/usart.c   ****   *
   9:Src/usart.c   ****   * <h2><center>&copy; Copyright (c) 2021 STMicroelectronics.
  10:Src/usart.c   ****   * All rights reserved.</center></h2>
  11:Src/usart.c   ****   *
  12:Src/usart.c   ****   * This software component is licensed by ST under BSD 3-Clause license,
  13:Src/usart.c   ****   * the "License"; You may not use this file except in compliance with the
  14:Src/usart.c   ****   * License. You may obtain a copy of the License at:
  15:Src/usart.c   ****   *                        opensource.org/licenses/BSD-3-Clause
  16:Src/usart.c   ****   *
  17:Src/usart.c   ****   ******************************************************************************
  18:Src/usart.c   ****   */
  19:Src/usart.c   **** 
  20:Src/usart.c   **** /* Includes ------------------------------------------------------------------*/
  21:Src/usart.c   **** #include "usart.h"
  22:Src/usart.c   **** 
  23:Src/usart.c   **** /* USER CODE BEGIN 0 */
  24:Src/usart.c   **** 
  25:Src/usart.c   **** /* USER CODE END 0 */
  26:Src/usart.c   **** 
  27:Src/usart.c   **** UART_HandleTypeDef huart1;
  28:Src/usart.c   **** 
  29:Src/usart.c   **** /* USART1 init function */
  30:Src/usart.c   **** 
  31:Src/usart.c   **** void MX_USART1_UART_Init(void)
ARM GAS  C:\Users\bnusw\AppData\Local\Temp\ccYygTin.s 			page 2


  32:Src/usart.c   **** {
  28              		.loc 1 32 0
  29              		.cfi_startproc
  30              		@ args = 0, pretend = 0, frame = 0
  31              		@ frame_needed = 0, uses_anonymous_args = 0
  32 0000 10B5     		push	{r4, lr}
  33              	.LCFI0:
  34              		.cfi_def_cfa_offset 8
  35              		.cfi_offset 4, -8
  36              		.cfi_offset 14, -4
  33:Src/usart.c   **** 
  34:Src/usart.c   ****   /* USER CODE BEGIN USART1_Init 0 */
  35:Src/usart.c   **** 
  36:Src/usart.c   ****   /* USER CODE END USART1_Init 0 */
  37:Src/usart.c   **** 
  38:Src/usart.c   ****   /* USER CODE BEGIN USART1_Init 1 */
  39:Src/usart.c   **** 
  40:Src/usart.c   ****   /* USER CODE END USART1_Init 1 */
  41:Src/usart.c   ****   huart1.Instance = USART1;
  37              		.loc 1 41 0
  38 0002 0B48     		ldr	r0, .L3
  39 0004 0B4B     		ldr	r3, .L3+4
  40 0006 0360     		str	r3, [r0]
  42:Src/usart.c   ****   huart1.Init.BaudRate = 115200;
  41              		.loc 1 42 0
  42 0008 E123     		movs	r3, #225
  43 000a 5B02     		lsls	r3, r3, #9
  44 000c 4360     		str	r3, [r0, #4]
  43:Src/usart.c   ****   huart1.Init.WordLength = UART_WORDLENGTH_8B;
  45              		.loc 1 43 0
  46 000e 0023     		movs	r3, #0
  47 0010 8360     		str	r3, [r0, #8]
  44:Src/usart.c   ****   huart1.Init.StopBits = UART_STOPBITS_1;
  48              		.loc 1 44 0
  49 0012 C360     		str	r3, [r0, #12]
  45:Src/usart.c   ****   huart1.Init.Parity = UART_PARITY_NONE;
  50              		.loc 1 45 0
  51 0014 0361     		str	r3, [r0, #16]
  46:Src/usart.c   ****   huart1.Init.Mode = UART_MODE_TX_RX;
  52              		.loc 1 46 0
  53 0016 0C22     		movs	r2, #12
  54 0018 4261     		str	r2, [r0, #20]
  47:Src/usart.c   ****   huart1.Init.HwFlowCtl = UART_HWCONTROL_NONE;
  55              		.loc 1 47 0
  56 001a 8361     		str	r3, [r0, #24]
  48:Src/usart.c   ****   huart1.Init.OverSampling = UART_OVERSAMPLING_16;
  57              		.loc 1 48 0
  58 001c C361     		str	r3, [r0, #28]
  49:Src/usart.c   ****   huart1.Init.OneBitSampling = UART_ONE_BIT_SAMPLE_DISABLE;
  59              		.loc 1 49 0
  60 001e 0362     		str	r3, [r0, #32]
  50:Src/usart.c   ****   huart1.AdvancedInit.AdvFeatureInit = UART_ADVFEATURE_NO_INIT;
  61              		.loc 1 50 0
  62 0020 4362     		str	r3, [r0, #36]
  51:Src/usart.c   ****   if (HAL_UART_Init(&huart1) != HAL_OK)
  63              		.loc 1 51 0
  64 0022 FFF7FEFF 		bl	HAL_UART_Init
ARM GAS  C:\Users\bnusw\AppData\Local\Temp\ccYygTin.s 			page 3


  65              	.LVL0:
  66 0026 0028     		cmp	r0, #0
  67 0028 01D0     		beq	.L1
  52:Src/usart.c   ****   {
  53:Src/usart.c   ****     Error_Handler();
  68              		.loc 1 53 0
  69 002a FFF7FEFF 		bl	Error_Handler
  70              	.LVL1:
  71              	.L1:
  54:Src/usart.c   ****   }
  55:Src/usart.c   ****   /* USER CODE BEGIN USART1_Init 2 */
  56:Src/usart.c   **** 
  57:Src/usart.c   ****   /* USER CODE END USART1_Init 2 */
  58:Src/usart.c   **** 
  59:Src/usart.c   **** }
  72              		.loc 1 59 0
  73              		@ sp needed
  74 002e 10BD     		pop	{r4, pc}
  75              	.L4:
  76              		.align	2
  77              	.L3:
  78 0030 00000000 		.word	huart1
  79 0034 00380140 		.word	1073821696
  80              		.cfi_endproc
  81              	.LFE40:
  83              		.section	.text.HAL_UART_MspInit,"ax",%progbits
  84              		.align	2
  85              		.global	HAL_UART_MspInit
  86              		.code	16
  87              		.thumb_func
  89              	HAL_UART_MspInit:
  90              	.LFB41:
  60:Src/usart.c   **** 
  61:Src/usart.c   **** void HAL_UART_MspInit(UART_HandleTypeDef* uartHandle)
  62:Src/usart.c   **** {
  91              		.loc 1 62 0
  92              		.cfi_startproc
  93              		@ args = 0, pretend = 0, frame = 32
  94              		@ frame_needed = 0, uses_anonymous_args = 0
  95              	.LVL2:
  96 0000 10B5     		push	{r4, lr}
  97              	.LCFI1:
  98              		.cfi_def_cfa_offset 8
  99              		.cfi_offset 4, -8
 100              		.cfi_offset 14, -4
 101 0002 88B0     		sub	sp, sp, #32
 102              	.LCFI2:
 103              		.cfi_def_cfa_offset 40
 104 0004 0400     		movs	r4, r0
  63:Src/usart.c   **** 
  64:Src/usart.c   ****   GPIO_InitTypeDef GPIO_InitStruct = {0};
 105              		.loc 1 64 0
 106 0006 1422     		movs	r2, #20
 107 0008 0021     		movs	r1, #0
 108 000a 03A8     		add	r0, sp, #12
 109              	.LVL3:
 110 000c FFF7FEFF 		bl	memset
ARM GAS  C:\Users\bnusw\AppData\Local\Temp\ccYygTin.s 			page 4


 111              	.LVL4:
  65:Src/usart.c   ****   if(uartHandle->Instance==USART1)
 112              		.loc 1 65 0
 113 0010 2268     		ldr	r2, [r4]
 114 0012 134B     		ldr	r3, .L7
 115 0014 9A42     		cmp	r2, r3
 116 0016 20D1     		bne	.L5
 117              	.LBB2:
  66:Src/usart.c   ****   {
  67:Src/usart.c   ****   /* USER CODE BEGIN USART1_MspInit 0 */
  68:Src/usart.c   **** 
  69:Src/usart.c   ****   /* USER CODE END USART1_MspInit 0 */
  70:Src/usart.c   ****     /* USART1 clock enable */
  71:Src/usart.c   ****     __HAL_RCC_USART1_CLK_ENABLE();
 118              		.loc 1 71 0
 119 0018 124B     		ldr	r3, .L7+4
 120 001a 9969     		ldr	r1, [r3, #24]
 121 001c 8022     		movs	r2, #128
 122 001e D201     		lsls	r2, r2, #7
 123 0020 1143     		orrs	r1, r2
 124 0022 9961     		str	r1, [r3, #24]
 125 0024 9969     		ldr	r1, [r3, #24]
 126 0026 0A40     		ands	r2, r1
 127 0028 0192     		str	r2, [sp, #4]
 128 002a 019A     		ldr	r2, [sp, #4]
 129              	.LBE2:
 130              	.LBB3:
  72:Src/usart.c   **** 
  73:Src/usart.c   ****     __HAL_RCC_GPIOA_CLK_ENABLE();
 131              		.loc 1 73 0
 132 002c 5969     		ldr	r1, [r3, #20]
 133 002e 8022     		movs	r2, #128
 134 0030 9202     		lsls	r2, r2, #10
 135 0032 1143     		orrs	r1, r2
 136 0034 5961     		str	r1, [r3, #20]
 137 0036 5B69     		ldr	r3, [r3, #20]
 138 0038 1A40     		ands	r2, r3
 139 003a 0292     		str	r2, [sp, #8]
 140 003c 029B     		ldr	r3, [sp, #8]
 141              	.LBE3:
  74:Src/usart.c   ****     /**USART1 GPIO Configuration
  75:Src/usart.c   ****     PA9     ------> USART1_TX
  76:Src/usart.c   ****     PA10     ------> USART1_RX
  77:Src/usart.c   ****     */
  78:Src/usart.c   ****     GPIO_InitStruct.Pin = GPIO_PIN_9|GPIO_PIN_10;
 142              		.loc 1 78 0
 143 003e C023     		movs	r3, #192
 144 0040 DB00     		lsls	r3, r3, #3
 145 0042 0393     		str	r3, [sp, #12]
  79:Src/usart.c   ****     GPIO_InitStruct.Mode = GPIO_MODE_AF_PP;
 146              		.loc 1 79 0
 147 0044 0223     		movs	r3, #2
 148 0046 0493     		str	r3, [sp, #16]
  80:Src/usart.c   ****     GPIO_InitStruct.Pull = GPIO_NOPULL;
  81:Src/usart.c   ****     GPIO_InitStruct.Speed = GPIO_SPEED_FREQ_HIGH;
 149              		.loc 1 81 0
 150 0048 0133     		adds	r3, r3, #1
ARM GAS  C:\Users\bnusw\AppData\Local\Temp\ccYygTin.s 			page 5


 151 004a 0693     		str	r3, [sp, #24]
  82:Src/usart.c   ****     GPIO_InitStruct.Alternate = GPIO_AF1_USART1;
 152              		.loc 1 82 0
 153 004c 023B     		subs	r3, r3, #2
 154 004e 0793     		str	r3, [sp, #28]
  83:Src/usart.c   ****     HAL_GPIO_Init(GPIOA, &GPIO_InitStruct);
 155              		.loc 1 83 0
 156 0050 03A9     		add	r1, sp, #12
 157 0052 9020     		movs	r0, #144
 158 0054 C005     		lsls	r0, r0, #23
 159 0056 FFF7FEFF 		bl	HAL_GPIO_Init
 160              	.LVL5:
 161              	.L5:
  84:Src/usart.c   **** 
  85:Src/usart.c   ****   /* USER CODE BEGIN USART1_MspInit 1 */
  86:Src/usart.c   **** 
  87:Src/usart.c   ****   /* USER CODE END USART1_MspInit 1 */
  88:Src/usart.c   ****   }
  89:Src/usart.c   **** }
 162              		.loc 1 89 0
 163 005a 08B0     		add	sp, sp, #32
 164              		@ sp needed
 165              	.LVL6:
 166 005c 10BD     		pop	{r4, pc}
 167              	.L8:
 168 005e C046     		.align	2
 169              	.L7:
 170 0060 00380140 		.word	1073821696
 171 0064 00100240 		.word	1073876992
 172              		.cfi_endproc
 173              	.LFE41:
 175              		.section	.text.HAL_UART_MspDeInit,"ax",%progbits
 176              		.align	2
 177              		.global	HAL_UART_MspDeInit
 178              		.code	16
 179              		.thumb_func
 181              	HAL_UART_MspDeInit:
 182              	.LFB42:
  90:Src/usart.c   **** 
  91:Src/usart.c   **** void HAL_UART_MspDeInit(UART_HandleTypeDef* uartHandle)
  92:Src/usart.c   **** {
 183              		.loc 1 92 0
 184              		.cfi_startproc
 185              		@ args = 0, pretend = 0, frame = 0
 186              		@ frame_needed = 0, uses_anonymous_args = 0
 187              	.LVL7:
 188 0000 10B5     		push	{r4, lr}
 189              	.LCFI3:
 190              		.cfi_def_cfa_offset 8
 191              		.cfi_offset 4, -8
 192              		.cfi_offset 14, -4
  93:Src/usart.c   **** 
  94:Src/usart.c   ****   if(uartHandle->Instance==USART1)
 193              		.loc 1 94 0
 194 0002 0268     		ldr	r2, [r0]
 195 0004 074B     		ldr	r3, .L11
 196 0006 9A42     		cmp	r2, r3
ARM GAS  C:\Users\bnusw\AppData\Local\Temp\ccYygTin.s 			page 6


 197 0008 0AD1     		bne	.L9
  95:Src/usart.c   ****   {
  96:Src/usart.c   ****   /* USER CODE BEGIN USART1_MspDeInit 0 */
  97:Src/usart.c   **** 
  98:Src/usart.c   ****   /* USER CODE END USART1_MspDeInit 0 */
  99:Src/usart.c   ****     /* Peripheral clock disable */
 100:Src/usart.c   ****     __HAL_RCC_USART1_CLK_DISABLE();
 198              		.loc 1 100 0
 199 000a 074A     		ldr	r2, .L11+4
 200 000c 9169     		ldr	r1, [r2, #24]
 201 000e 074B     		ldr	r3, .L11+8
 202 0010 0B40     		ands	r3, r1
 203 0012 9361     		str	r3, [r2, #24]
 101:Src/usart.c   **** 
 102:Src/usart.c   ****     /**USART1 GPIO Configuration
 103:Src/usart.c   ****     PA9     ------> USART1_TX
 104:Src/usart.c   ****     PA10     ------> USART1_RX
 105:Src/usart.c   ****     */
 106:Src/usart.c   ****     HAL_GPIO_DeInit(GPIOA, GPIO_PIN_9|GPIO_PIN_10);
 204              		.loc 1 106 0
 205 0014 C021     		movs	r1, #192
 206 0016 C900     		lsls	r1, r1, #3
 207 0018 9020     		movs	r0, #144
 208              	.LVL8:
 209 001a C005     		lsls	r0, r0, #23
 210 001c FFF7FEFF 		bl	HAL_GPIO_DeInit
 211              	.LVL9:
 212              	.L9:
 107:Src/usart.c   **** 
 108:Src/usart.c   ****   /* USER CODE BEGIN USART1_MspDeInit 1 */
 109:Src/usart.c   **** 
 110:Src/usart.c   ****   /* USER CODE END USART1_MspDeInit 1 */
 111:Src/usart.c   ****   }
 112:Src/usart.c   **** }
 213              		.loc 1 112 0
 214              		@ sp needed
 215 0020 10BD     		pop	{r4, pc}
 216              	.L12:
 217 0022 C046     		.align	2
 218              	.L11:
 219 0024 00380140 		.word	1073821696
 220 0028 00100240 		.word	1073876992
 221 002c FFBFFFFF 		.word	-16385
 222              		.cfi_endproc
 223              	.LFE42:
 225              		.section	.text._write,"ax",%progbits
 226              		.align	2
 227              		.global	_write
 228              		.code	16
 229              		.thumb_func
 231              	_write:
 232              	.LFB43:
 113:Src/usart.c   **** 
 114:Src/usart.c   **** /* USER CODE BEGIN 1 */
 115:Src/usart.c   **** #if defined(__GNUC__)
 116:Src/usart.c   **** int _write(int fd, char * ptr, int len)
 117:Src/usart.c   **** {
ARM GAS  C:\Users\bnusw\AppData\Local\Temp\ccYygTin.s 			page 7


 233              		.loc 1 117 0
 234              		.cfi_startproc
 235              		@ args = 0, pretend = 0, frame = 0
 236              		@ frame_needed = 0, uses_anonymous_args = 0
 237              	.LVL10:
 238 0000 10B5     		push	{r4, lr}
 239              	.LCFI4:
 240              		.cfi_def_cfa_offset 8
 241              		.cfi_offset 4, -8
 242              		.cfi_offset 14, -4
 243 0002 1400     		movs	r4, r2
 118:Src/usart.c   ****   HAL_UART_Transmit(&huart1, (uint8_t *) ptr, len, HAL_MAX_DELAY);
 244              		.loc 1 118 0
 245 0004 92B2     		uxth	r2, r2
 246              	.LVL11:
 247 0006 0123     		movs	r3, #1
 248 0008 5B42     		rsbs	r3, r3, #0
 249 000a 0248     		ldr	r0, .L14
 250              	.LVL12:
 251 000c FFF7FEFF 		bl	HAL_UART_Transmit
 252              	.LVL13:
 119:Src/usart.c   ****   return len;
 120:Src/usart.c   **** }
 253              		.loc 1 120 0
 254 0010 2000     		movs	r0, r4
 255              		@ sp needed
 256              	.LVL14:
 257 0012 10BD     		pop	{r4, pc}
 258              	.L15:
 259              		.align	2
 260              	.L14:
 261 0014 00000000 		.word	huart1
 262              		.cfi_endproc
 263              	.LFE43:
 265              		.comm	huart1,132,4
 266              		.text
 267              	.Letext0:
 268              		.file 2 "c:\\program files (x86)\\gnu tools arm embedded\\5.4 2016q3\\arm-none-eabi\\include\\mach
 269              		.file 3 "c:\\program files (x86)\\gnu tools arm embedded\\5.4 2016q3\\arm-none-eabi\\include\\sys\
 270              		.file 4 "Drivers/CMSIS/Device/ST/STM32F0xx/Include/stm32f030x8.h"
 271              		.file 5 "Drivers/STM32F0xx_HAL_Driver/Inc/stm32f0xx_hal_def.h"
 272              		.file 6 "Drivers/STM32F0xx_HAL_Driver/Inc/stm32f0xx_hal_gpio.h"
 273              		.file 7 "Drivers/STM32F0xx_HAL_Driver/Inc/stm32f0xx_hal_dma.h"
 274              		.file 8 "Drivers/STM32F0xx_HAL_Driver/Inc/stm32f0xx_hal_uart.h"
 275              		.file 9 "Inc/main.h"
ARM GAS  C:\Users\bnusw\AppData\Local\Temp\ccYygTin.s 			page 8

